Certificate:
    Data:
        Version: 1 (0x0)
        Serial Number:
            fd:75:d1:92:44:c1:2b:88
    Signature Algorithm: sha256WithRSAEncryption
        Issuer: CN=client
        Validity
            Not Before: May 20 17:24:48 2023 GMT
            Not After : May 19 17:24:48 2024 GMT
        Subject: CN=client
        Subject Public Key Info:
            Public Key Algorithm: rsaEncryption
                RSA Public-Key: (2048 bit)
                Modulus:
                    00:cf:62:e6:ea:72:18:9b:a6:20:3b:cd:66:e1:4e:
                    72:95:4e:1b:97:86:c6:cf:76:3d:15:c6:e2:ed:53:
                    c7:c0:fb:d9:8d:e6:4b:6e:2c:82:4e:b0:6c:9e:31:
                    9b:15:04:c7:7f:dc:9c:16:5e:e9:da:88:26:c4:71:
                    d6:ed:71:5f:d8:4c:8b:ad:38:18:c0:7e:c2:8a:58:
                    17:90:ca:38:09:c1:60:8d:dc:50:28:0a:c7:82:d8:
                    1c:09:20:07:31:8b:7b:68:61:ca:5b:a7:fd:4c:a6:
                    2c:79:6c:56:bd:60:42:69:90:63:ae:b4:90:42:38:
                    18:4d:2b:6c:9c:16:4d:fe:d1:c5:2e:0d:76:99:22:
                    0e:5b:9d:d9:09:e2:79:8c:2e:d8:fa:48:76:43:37:
                    74:e3:10:67:d9:22:57:6c:69:65:e6:b8:a3:f6:8d:
                    b1:2a:de:65:88:fa:9e:56:1f:e6:d3:e1:42:f0:72:
                    19:4c:0c:e3:50:21:da:f3:24:af:db:9a:9f:42:5d:
                    cc:85:bf:5f:f3:17:78:d3:de:2f:7c:ad:63:60:9c:
                    c8:cb:fc:63:b6:a9:71:db:dc:b1:b8:c5:f4:c3:dc:
                    3e:01:d6:74:b3:e2:cd:8f:12:ec:da:2e:cf:c0:27:
                    5e:f6:12:e5:d1:ee:77:79:bf:f6:a4:98:e1:76:09:
                    bc:07
                Exponent: 65537 (0x10001)
    Signature Algorithm: sha256WithRSAEncryption
         6d:c3:98:1b:d2:9f:68:c9:7f:20:c2:20:b3:9c:55:d5:24:89:
         02:b5:31:91:ec:98:89:66:8b:9a:7a:39:ed:79:69:54:c8:f8:
         84:af:2a:e5:99:70:87:41:55:25:fb:16:b6:2e:d1:e4:77:64:
         93:d4:e2:6f:19:9f:db:ea:bd:10:f1:0c:f0:b8:26:cb:6d:1d:
         8e:67:90:eb:03:28:80:62:0e:f7:8a:a8:9e:7d:6e:47:10:95:
         4a:1a:ca:34:16:b6:08:1a:84:b8:fa:60:4f:4e:24:c5:5f:d9:
         84:19:7a:d2:20:21:46:ca:25:be:28:90:91:cb:50:99:ce:f9:
         f9:78:65:c5:65:b7:eb:de:15:82:e5:2c:3b:7a:a0:43:59:37:
         84:04:f8:04:82:b5:8e:4f:79:1f:50:af:37:ca:a6:88:83:b2:
         93:84:43:71:8b:5f:ce:7b:a5:ff:07:dd:7a:c2:fe:f5:d0:37:
         42:43:79:e3:c3:77:d0:50:32:b3:b3:b9:78:0a:83:80:f2:37:
         03:03:45:ea:c6:3a:4a:47:ac:da:60:90:0f:5d:3c:d3:be:42:
         0d:b3:d3:be:f7:16:aa:01:db:01:12:d9:d2:d6:32:28:b5:19:
         5c:2b:03:91:ac:88:d6:07:9c:31:48:45:f8:ae:92:db:62:46:
         a9:1f:cf:a1
-----BEGIN CERTIFICATE-----
MIICnjCCAYYCCQD9ddGSRMEriDANBgkqhkiG9w0BAQsFADARMQ8wDQYDVQQDDAZj
bGllbnQwHhcNMjMwNTIwMTcyNDQ4WhcNMjQwNTE5MTcyNDQ4WjARMQ8wDQYDVQQD
DAZjbGllbnQwggEiMA0GCSqGSIb3DQEBAQUAA4IBDwAwggEKAoIBAQDPYubqchib
piA7zWbhTnKVThuXhsbPdj0VxuLtU8fA+9mN5ktuLIJOsGyeMZsVBMd/3JwWXuna
iCbEcdbtcV/YTIutOBjAfsKKWBeQyjgJwWCN3FAoCseC2BwJIAcxi3toYcpbp/1M
pix5bFa9YEJpkGOutJBCOBhNK2ycFk3+0cUuDXaZIg5bndkJ4nmMLtj6SHZDN3Tj
EGfZIldsaWXmuKP2jbEq3mWI+p5WH+bT4ULwchlMDONQIdrzJK/bmp9CXcyFv1/z
F3jT3i98rWNgnMjL/GO2qXHb3LG4xfTD3D4B1nSz4s2PEuzaLs/AJ172EuXR7nd5
v/akmOF2CbwHAgMBAAEwDQYJKoZIhvcNAQELBQADggEBAG3DmBvSn2jJfyDCILOc
VdUkiQK1MZHsmIlmi5p6Oe15aVTI+ISvKuWZcIdBVSX7FrYu0eR3ZJPU4m8Zn9vq
vRDxDPC4JsttHY5nkOsDKIBiDveKqJ59bkcQlUoayjQWtggahLj6YE9OJMVf2YQZ
etIgIUbKJb4okJHLUJnO+fl4ZcVlt+veFYLlLDt6oENZN4QE+ASCtY5PeR9QrzfK
poiDspOEQ3GLX857pf8H3XrC/vXQN0JDeePDd9BQMrOzuXgKg4DyNwMDRerGOkpH
rNpgkA9dPNO+Qg2z0773FqoB2wES2dLWMii1GVwrA5GsiNYHnDFIRfiukttiRqkf
z6E=
-----END CERTIFICATE-----
