Certificate Request:
    Data:
        Version: 0 (0x0)
        Subject: CN=localhost
        Subject Public Key Info:
            Public Key Algorithm: rsaEncryption
                RSA Public-Key: (2048 bit)
                Modulus:
                    00:9d:ff:93:fa:0a:b9:e6:22:7e:fa:b7:e3:47:1d:
                    ab:89:ce:fb:7e:ee:31:0e:73:24:57:3b:7e:84:57:
                    7c:d7:31:e7:64:57:99:be:d8:82:51:26:ab:32:1d:
                    c9:a9:90:45:a0:3a:a3:10:0b:67:de:bb:ca:cd:4d:
                    7e:79:45:f0:cf:5c:d8:50:d9:7a:c2:27:bc:64:e5:
                    ef:72:24:00:ad:49:25:31:ce:65:a2:0b:4b:cc:17:
                    9a:5c:b1:26:8c:bf:67:87:95:78:db:e8:aa:27:ee:
                    83:4c:f9:ea:6f:69:6a:00:df:bb:e3:c4:cd:7d:66:
                    66:74:14:a6:84:ac:ea:cb:0b:1e:97:c8:fd:e2:e7:
                    36:44:a9:da:5e:3a:b3:24:20:88:e7:1c:ea:be:48:
                    3d:49:6b:6a:63:ad:bc:4d:ec:bd:ff:28:2a:16:41:
                    55:67:0d:ce:19:eb:6d:79:a4:c7:45:e8:ab:76:ac:
                    21:6b:7d:fb:c4:a0:33:04:d4:a0:3f:c2:1b:b3:ff:
                    97:6e:2c:b9:ec:82:e8:25:25:62:63:41:54:d5:ea:
                    ec:e7:4a:c9:5c:59:da:24:b1:a4:ce:d8:74:95:8a:
                    0e:99:cc:eb:e8:a3:98:b3:51:41:73:72:66:dd:d6:
                    00:50:1f:8c:32:06:65:ff:56:36:03:8b:fc:2e:32:
                    80:19
                Exponent: 65537 (0x10001)
        Attributes:
            a0:00
    Signature Algorithm: sha256WithRSAEncryption
         0d:de:a8:d5:06:45:cc:65:b8:41:94:66:26:4f:3e:b6:b0:2a:
         f7:c5:3e:a5:46:7d:35:eb:ad:f3:26:63:40:45:12:a4:ba:a7:
         7c:12:27:25:66:fe:20:3f:1d:4d:59:b9:55:62:19:32:70:ae:
         06:f1:2b:fd:40:6a:58:7a:c3:48:78:e2:12:c6:bb:43:bb:e0:
         b0:43:2d:eb:4d:f8:9b:51:af:06:d6:74:65:09:6d:92:9c:7e:
         e6:ec:8b:71:61:bc:03:dc:cf:aa:ee:b8:6c:c3:62:76:c5:68:
         10:75:ed:58:b1:92:76:05:03:42:99:71:43:a4:1e:a4:f9:6c:
         77:de:40:55:40:ff:1e:ad:56:87:45:d1:79:a8:1d:d9:b3:76:
         1a:82:60:7a:4e:bc:d2:d1:a2:d4:64:55:18:ba:97:a4:ec:75:
         43:32:9e:7a:2b:db:98:a8:5f:25:c3:fa:c3:a7:f8:e0:c5:19:
         1d:2e:e3:59:d8:44:d3:e3:22:9b:a0:a1:51:ff:82:84:45:66:
         e7:24:42:11:f7:da:48:ff:6b:2c:6c:1f:a6:92:5b:73:9d:f6:
         f1:68:e4:73:20:e9:96:34:48:91:4e:9f:e4:79:17:32:50:8f:
         e0:72:06:ab:d1:68:e8:f3:1d:d8:25:35:f7:64:9b:9a:74:0a:
         16:3b:73:1e
-----BEGIN CERTIFICATE REQUEST-----
MIICWTCCAUECAQAwFDESMBAGA1UEAwwJbG9jYWxob3N0MIIBIjANBgkqhkiG9w0B
AQEFAAOCAQ8AMIIBCgKCAQEAnf+T+gq55iJ++rfjRx2ric77fu4xDnMkVzt+hFd8
1zHnZFeZvtiCUSarMh3JqZBFoDqjEAtn3rvKzU1+eUXwz1zYUNl6wie8ZOXvciQA
rUklMc5logtLzBeaXLEmjL9nh5V42+iqJ+6DTPnqb2lqAN+748TNfWZmdBSmhKzq
ywsel8j94uc2RKnaXjqzJCCI5xzqvkg9SWtqY628Tey9/ygqFkFVZw3OGetteaTH
Reirdqwha337xKAzBNSgP8Ibs/+Xbiy57ILoJSViY0FU1ers50rJXFnaJLGkzth0
lYoOmczr6KOYs1FBc3Jm3dYAUB+MMgZl/1Y2A4v8LjKAGQIDAQABoAAwDQYJKoZI
hvcNAQELBQADggEBAA3eqNUGRcxluEGUZiZPPrawKvfFPqVGfTXrrfMmY0BFEqS6
p3wSJyVm/iA/HU1ZuVViGTJwrgbxK/1Aalh6w0h44hLGu0O74LBDLetN+JtRrwbW
dGUJbZKcfubsi3FhvAPcz6ruuGzDYnbFaBB17VixknYFA0KZcUOkHqT5bHfeQFVA
/x6tVodF0XmoHdmzdhqCYHpOvNLRotRkVRi6l6TsdUMynnor25ioXyXD+sOn+ODF
GR0u41nYRNPjIpugoVH/goRFZuckQhH32kj/ayxsH6aSW3Od9vFo5HMg6ZY0SJFO
n+R5FzJQj+ByBqvRaOjzHdglNfdkm5p0ChY7cx4=
-----END CERTIFICATE REQUEST-----
