Certificate:
    Data:
        Version: 1 (0x0)
        Serial Number:
            ef:db:99:83:cc:4d:69:a0
    Signature Algorithm: sha256WithRSAEncryption
        Issuer: CN=localhost
        Validity
            Not Before: May 19 00:11:14 2023 GMT
            Not After : Jun 18 00:11:14 2023 GMT
        Subject: CN=localhost
        Subject Public Key Info:
            Public Key Algorithm: rsaEncryption
                RSA Public-Key: (2048 bit)
                Modulus:
                    00:9d:ff:93:fa:0a:b9:e6:22:7e:fa:b7:e3:47:1d:
                    ab:89:ce:fb:7e:ee:31:0e:73:24:57:3b:7e:84:57:
                    7c:d7:31:e7:64:57:99:be:d8:82:51:26:ab:32:1d:
                    c9:a9:90:45:a0:3a:a3:10:0b:67:de:bb:ca:cd:4d:
                    7e:79:45:f0:cf:5c:d8:50:d9:7a:c2:27:bc:64:e5:
                    ef:72:24:00:ad:49:25:31:ce:65:a2:0b:4b:cc:17:
                    9a:5c:b1:26:8c:bf:67:87:95:78:db:e8:aa:27:ee:
                    83:4c:f9:ea:6f:69:6a:00:df:bb:e3:c4:cd:7d:66:
                    66:74:14:a6:84:ac:ea:cb:0b:1e:97:c8:fd:e2:e7:
                    36:44:a9:da:5e:3a:b3:24:20:88:e7:1c:ea:be:48:
                    3d:49:6b:6a:63:ad:bc:4d:ec:bd:ff:28:2a:16:41:
                    55:67:0d:ce:19:eb:6d:79:a4:c7:45:e8:ab:76:ac:
                    21:6b:7d:fb:c4:a0:33:04:d4:a0:3f:c2:1b:b3:ff:
                    97:6e:2c:b9:ec:82:e8:25:25:62:63:41:54:d5:ea:
                    ec:e7:4a:c9:5c:59:da:24:b1:a4:ce:d8:74:95:8a:
                    0e:99:cc:eb:e8:a3:98:b3:51:41:73:72:66:dd:d6:
                    00:50:1f:8c:32:06:65:ff:56:36:03:8b:fc:2e:32:
                    80:19
                Exponent: 65537 (0x10001)
    Signature Algorithm: sha256WithRSAEncryption
         60:e3:44:cb:08:a0:ec:b1:e6:24:18:21:15:a8:7d:a0:22:57:
         76:41:a0:4a:83:2b:18:39:d4:93:29:5e:55:a5:2b:ee:91:31:
         c7:90:c7:07:14:a4:8f:ad:78:27:ad:b7:a2:4f:a7:64:75:1d:
         3a:b9:2b:03:e6:65:cb:40:87:14:0d:b8:f7:c0:c1:33:72:bd:
         38:dc:75:9a:8f:16:87:81:ea:4e:21:19:b1:6b:af:36:37:4c:
         28:ff:34:b7:b0:be:69:93:6c:ec:7a:e3:56:c6:1c:f6:de:57:
         85:ba:43:f2:ea:b0:93:9e:df:37:81:21:f6:1b:8e:39:a7:bd:
         93:44:b7:1f:21:c3:cd:2f:21:e7:64:a9:84:13:dd:12:a0:6a:
         3e:3a:e8:0e:64:a4:3b:fe:e3:26:a7:bb:4d:26:3e:22:df:be:
         2e:fa:f6:a8:9e:c3:34:14:aa:2d:e8:09:43:94:e6:de:ad:0f:
         75:e7:ba:88:a5:06:9a:15:ec:dc:f5:6b:3c:4c:d1:7e:07:bf:
         4a:55:2d:72:8e:ad:de:2a:d5:dd:14:5a:86:5f:89:0a:c7:20:
         f8:49:64:9b:a6:ff:53:3f:ca:a4:61:0c:d1:99:bd:d9:df:45:
         2b:b0:06:74:b0:f1:4b:cd:57:bc:e1:82:5d:fe:6f:d5:c9:5c:
         f4:f9:fb:02
-----BEGIN CERTIFICATE-----
MIICpDCCAYwCCQDv25mDzE1poDANBgkqhkiG9w0BAQsFADAUMRIwEAYDVQQDDAls
b2NhbGhvc3QwHhcNMjMwNTE5MDAxMTE0WhcNMjMwNjE4MDAxMTE0WjAUMRIwEAYD
VQQDDAlsb2NhbGhvc3QwggEiMA0GCSqGSIb3DQEBAQUAA4IBDwAwggEKAoIBAQCd
/5P6CrnmIn76t+NHHauJzvt+7jEOcyRXO36EV3zXMedkV5m+2IJRJqsyHcmpkEWg
OqMQC2feu8rNTX55RfDPXNhQ2XrCJ7xk5e9yJACtSSUxzmWiC0vMF5pcsSaMv2eH
lXjb6Kon7oNM+epvaWoA37vjxM19ZmZ0FKaErOrLCx6XyP3i5zZEqdpeOrMkIIjn
HOq+SD1Ja2pjrbxN7L3/KCoWQVVnDc4Z6215pMdF6Kt2rCFrffvEoDME1KA/whuz
/5duLLnsguglJWJjQVTV6uznSslcWdoksaTO2HSVig6ZzOvoo5izUUFzcmbd1gBQ
H4wyBmX/VjYDi/wuMoAZAgMBAAEwDQYJKoZIhvcNAQELBQADggEBAGDjRMsIoOyx
5iQYIRWofaAiV3ZBoEqDKxg51JMpXlWlK+6RMceQxwcUpI+teCett6JPp2R1HTq5
KwPmZctAhxQNuPfAwTNyvTjcdZqPFoeB6k4hGbFrrzY3TCj/NLewvmmTbOx641bG
HPbeV4W6Q/LqsJOe3zeBIfYbjjmnvZNEtx8hw80vIedkqYQT3RKgaj466A5kpDv+
4yanu00mPiLfvi769qiewzQUqi3oCUOU5t6tD3XnuoilBpoV7Nz1azxM0X4Hv0pV
LXKOrd4q1d0UWoZfiQrHIPhJZJum/1M/yqRhDNGZvdnfRSuwBnSw8UvNV7zhgl3+
b9XJXPT5+wI=
-----END CERTIFICATE-----
